; Function Attrs: nounwind uwtable
define ptr @l_Lean_Elab_Tactic_evalCalc___lambda__7(ptr noundef %0, ptr noundef %1, ptr noundef %2, ptr noundef %3, ptr noundef %4, ptr noundef %5, ptr noundef %6, ptr noundef %7, ptr noundef %8, ptr noundef %9, ptr noundef %10, ptr noundef %11, ptr noundef %12) #0 {
  %14 = ptrtoint ptr %0 to i64
  %15 = and i64 %14, 1
  %.not = icmp eq i64 %15, 0
  br i1 %.not, label %16, label %lean_inc.exit39

16:                                               ; preds = %13
  %.val.i = load i32, ptr %0, align 4, !tbaa !8
  %17 = icmp sgt i32 %.val.i, 0
  br i1 %17, label %18, label %20, !prof !11

18:                                               ; preds = %16
  %19 = add nuw i32 %.val.i, 1
  store i32 %19, ptr %0, align 4, !tbaa !8
  br label %lean_inc.exit39

20:                                               ; preds = %16
  %.not.i40 = icmp eq i32 %.val.i, 0
  br i1 %.not.i40, label %lean_inc.exit39, label %21

21:                                               ; preds = %20
  tail call void @lean_inc_ref_cold(ptr noundef nonnull %0) #4
  br label %lean_inc.exit39

lean_inc.exit39:                                  ; preds = %21, %20, %18, %13
  tail call void @lean_inc_heartbeat() #4
  %22 = tail call noalias ptr @mi_malloc_small(i64 noundef 56) #4
  %23 = icmp eq ptr %22, null
  br i1 %23, label %24, label %lean_alloc_closure.exit

24:                                               ; preds = %lean_inc.exit39
  tail call void @lean_internal_panic_out_of_memory() #5
  unreachable

lean_alloc_closure.exit:                          ; preds = %lean_inc.exit39
  %25 = getelementptr inbounds nuw i8, ptr %22, i64 4
  store i32 1, ptr %22, align 4, !tbaa !8
  store i32 -184549320, ptr %25, align 4
  %26 = getelementptr inbounds nuw i8, ptr %22, i64 8
  store ptr @l_Lean_Elab_Tactic_evalCalc___lambda__5, ptr %26, align 8, !tbaa !4
  %27 = getelementptr inbounds nuw i8, ptr %22, i64 16
  store i16 13, ptr %27, align 8, !tbaa !15
  %28 = getelementptr inbounds nuw i8, ptr %22, i64 18
  store i16 4, ptr %28, align 2, !tbaa !15
  %29 = getelementptr inbounds nuw i8, ptr %22, i64 24
  store ptr %0, ptr %29, align 8, !tbaa !4
  %30 = getelementptr inbounds nuw i8, ptr %22, i64 32
  store ptr %2, ptr %30, align 8, !tbaa !4
  %31 = getelementptr inbounds nuw i8, ptr %22, i64 40
  store ptr %3, ptr %31, align 8, !tbaa !4
  %32 = getelementptr inbounds nuw i8, ptr %22, i64 48
  store ptr %1, ptr %32, align 8, !tbaa !4
  %33 = tail call ptr @l_Lean_Elab_Tactic_mkInitialTacticInfo(ptr noundef %0, ptr noundef %4, ptr noundef %5, ptr noundef %6, ptr noundef %7, ptr noundef %8, ptr noundef %9, ptr noundef %10, ptr noundef %11, ptr noundef %12) #4
  %34 = getelementptr inbounds nuw i8, ptr %33, i64 8
  %35 = load ptr, ptr %34, align 8, !tbaa !4
  %36 = ptrtoint ptr %35 to i64
  %37 = and i64 %36, 1
  %.not48 = icmp eq i64 %37, 0
  br i1 %.not48, label %38, label %lean_inc.exit38

38:                                               ; preds = %lean_alloc_closure.exit
  %.val.i41 = load i32, ptr %35, align 4, !tbaa !8
  %39 = icmp sgt i32 %.val.i41, 0
  br i1 %39, label %40, label %42, !prof !11

40:                                               ; preds = %38
  %41 = add nuw i32 %.val.i41, 1
  store i32 %41, ptr %35, align 4, !tbaa !8
  br label %lean_inc.exit38

42:                                               ; preds = %38
  %.not.i42 = icmp eq i32 %.val.i41, 0
  br i1 %.not.i42, label %lean_inc.exit38, label %43

43:                                               ; preds = %42
  tail call void @lean_inc_ref_cold(ptr noundef nonnull %35) #4
  br label %lean_inc.exit38

lean_inc.exit38:                                  ; preds = %43, %42, %40, %lean_alloc_closure.exit
  %44 = getelementptr inbounds nuw i8, ptr %33, i64 16
  %45 = load ptr, ptr %44, align 8, !tbaa !4
  %46 = ptrtoint ptr %45 to i64
  %47 = and i64 %46, 1
  %.not49 = icmp eq i64 %47, 0
  br i1 %.not49, label %48, label %lean_inc.exit

48:                                               ; preds = %lean_inc.exit38
  %.val.i44 = load i32, ptr %45, align 4, !tbaa !8
  %49 = icmp sgt i32 %.val.i44, 0
  br i1 %49, label %50, label %52, !prof !11

50:                                               ; preds = %48
  %51 = add nuw i32 %.val.i44, 1
  store i32 %51, ptr %45, align 4, !tbaa !8
  br label %lean_inc.exit

52:                                               ; preds = %48
  %.not.i45 = icmp eq i32 %.val.i44, 0
  br i1 %.not.i45, label %lean_inc.exit, label %53

53:                                               ; preds = %52
  tail call void @lean_inc_ref_cold(ptr noundef nonnull %45) #4
  br label %lean_inc.exit

lean_inc.exit:                                    ; preds = %53, %52, %50, %lean_inc.exit38
  %54 = ptrtoint ptr %33 to i64
  %55 = and i64 %54, 1
  %.not50 = icmp eq i64 %55, 0
  br i1 %.not50, label %56, label %lean_dec.exit

56:                                               ; preds = %lean_inc.exit
  %57 = load i32, ptr %33, align 4, !tbaa !8
  %58 = icmp sgt i32 %57, 1
  br i1 %58, label %59, label %61, !prof !11

59:                                               ; preds = %56
  %60 = add nsw i32 %57, -1
  store i32 %60, ptr %33, align 4, !tbaa !8
  br label %lean_dec.exit

61:                                               ; preds = %56
  %.not.i = icmp eq i32 %57, 0
  br i1 %.not.i, label %lean_dec.exit, label %62

62:                                               ; preds = %61
  tail call void @lean_dec_ref_cold(ptr noundef nonnull %33) #4
  br label %lean_dec.exit

lean_dec.exit:                                    ; preds = %62, %61, %59, %lean_inc.exit
  tail call void @lean_inc_heartbeat() #4
  %63 = tail call noalias ptr @mi_malloc_small(i64 noundef 32) #4
  %64 = icmp eq ptr %63, null
  br i1 %64, label %65, label %lean_alloc_closure.exit47

65:                                               ; preds = %lean_dec.exit
  tail call void @lean_internal_panic_out_of_memory() #5
  unreachable

lean_alloc_closure.exit47:                        ; preds = %lean_dec.exit
  %66 = getelementptr inbounds nuw i8, ptr %63, i64 4
  store i32 1, ptr %63, align 4, !tbaa !8
  store i32 -184549344, ptr %66, align 4
  %67 = getelementptr inbounds nuw i8, ptr %63, i64 8
  store ptr @l_Lean_Elab_Tactic_evalCalc___lambda__6, ptr %67, align 8, !tbaa !4
  %68 = getelementptr inbounds nuw i8, ptr %63, i64 16
  store i16 11, ptr %68, align 8, !tbaa !15
  %69 = getelementptr inbounds nuw i8, ptr %63, i64 18
  store i16 1, ptr %69, align 2, !tbaa !15
  %70 = getelementptr inbounds nuw i8, ptr %63, i64 24
  store ptr %35, ptr %70, align 8, !tbaa !4
  %71 = tail call ptr @l_Lean_Elab_withInfoTreeContext___at_Lean_Elab_Tactic_evalCalc___spec__1(ptr noundef nonnull %22, ptr noundef nonnull %63, ptr noundef %4, ptr noundef %5, ptr noundef %6, ptr noundef %7, ptr noundef %8, ptr noundef %9, ptr noundef %10, ptr noundef %11, ptr noundef %45)
  ret ptr %71
}